target datalayout = "e-m:e-p270:32:32-p271:32:32-p272:64:64-i64:64-i128:128-f80:128-n8:16:32:64-S128"
target triple = "x86_64-pc-linux-gnu"

%struct.H5FD_t = type { i64, ptr, i64, i32, i64, i64, i64, i64, i64, i8 }
%struct.H5FD_class_t = type { i32, i32, ptr, i64, i32, ptr, ptr, ptr, ptr, i64, ptr, ptr, ptr, i64, ptr, ptr, ptr, ptr, ptr, ptr, ptr, ptr, ptr, ptr, ptr, ptr, ptr, ptr, ptr, ptr, ptr, ptr, ptr, ptr, ptr, ptr, ptr, ptr, ptr, [7 x i32] }

@.str.1 = private unnamed_addr constant [103 x i8] c"generated/home/dtcxzyw/WorkSpace/Projects/compilers/llvm-opt-benchmark/bench/hdf5/hdf5/src/H5FDspace.c\00", align 1
@H5E_VFL_g = external global i64, align 8
@__func__.H5FD__free_real = private unnamed_addr constant [16 x i8] c"H5FD__free_real\00", align 1
@H5E_BADVALUE_g = external global i64, align 8
@.str.6 = private unnamed_addr constant [20 x i8] c"invalid file offset\00", align 1
@.str.7 = private unnamed_addr constant [39 x i8] c"invalid file free space region to free\00", align 1
@H5E_CANTFREE_g = external global i64, align 8
@.str.8 = private unnamed_addr constant [27 x i8] c"driver free request failed\00", align 1
@H5E_CANTSET_g = external global i64, align 8
@.str.9 = private unnamed_addr constant [43 x i8] c"set end of space allocation request failed\00", align 1

; Function Attrs: nounwind uwtable
define i32 @H5FD__free_real(ptr noundef %0, i32 noundef %1, i64 noundef %2, i64 noundef %3) #0 {
  %5 = alloca ptr, align 8
  %6 = alloca i32, align 4
  %7 = alloca i64, align 8
  %8 = alloca i64, align 8
  %9 = alloca i32, align 4
  %10 = alloca i8, align 1
  %11 = alloca i64, align 8
  store ptr %0, ptr %5, align 8
  store i32 %1, ptr %6, align 4
  store i64 %2, ptr %7, align 8
  store i64 %3, ptr %8, align 8
  store i32 0, ptr %9, align 4
  store i8 0, ptr %10, align 1
  %12 = load i64, ptr %7, align 8
  %13 = icmp ne i64 %12, -1
  br i1 %13, label %29, label %14

14:                                               ; preds = %4
  br label %15

15:                                               ; preds = %14
  br label %16

16:                                               ; preds = %15
  br label %17

17:                                               ; preds = %16
  %18 = load i64, ptr @H5E_VFL_g, align 8
  %19 = load i64, ptr @H5E_BADVALUE_g, align 8
  %20 = call i32 (ptr, ptr, i32, i64, i64, ptr, ...) @H5E_printf_stack(ptr noundef @.str.1, ptr noundef @__func__.H5FD__free_real, i32 noundef 281, i64 noundef %18, i64 noundef %19, ptr noundef @.str.6)
  br label %21

21:                                               ; preds = %17
  store i8 1, ptr %10, align 1
  %22 = load i8, ptr %10, align 1
  %23 = trunc i8 %22 to i1
  %24 = zext i1 %23 to i8
  store i8 %24, ptr %10, align 1
  br label %25

25:                                               ; preds = %21
  br label %26

26:                                               ; preds = %25
  store i32 -1, ptr %9, align 4
  br label %165

27:                                               ; No predecessors!
  br label %28

28:                                               ; preds = %27
  br label %29

29:                                               ; preds = %28, %4
  %30 = load ptr, ptr %5, align 8
  %31 = getelementptr inbounds %struct.H5FD_t, ptr %30, i32 0, i32 6
  %32 = load i64, ptr %31, align 8
  %33 = load i64, ptr %7, align 8
  %34 = add i64 %33, %32
  store i64 %34, ptr %7, align 8
  %35 = load i64, ptr %7, align 8
  %36 = load ptr, ptr %5, align 8
  %37 = getelementptr inbounds %struct.H5FD_t, ptr %36, i32 0, i32 5
  %38 = load i64, ptr %37, align 8
  %39 = icmp ugt i64 %35, %38
  br i1 %39, label %62, label %40

40:                                               ; preds = %29
  %41 = load i64, ptr %7, align 8
  %42 = icmp eq i64 -1, %41
  br i1 %42, label %62, label %43

43:                                               ; preds = %40
  %44 = load i64, ptr %7, align 8
  %45 = load i64, ptr %8, align 8
  %46 = add i64 %44, %45
  %47 = icmp eq i64 -1, %46
  br i1 %47, label %62, label %48

48:                                               ; preds = %43
  %49 = load i64, ptr %7, align 8
  %50 = load i64, ptr %8, align 8
  %51 = add i64 %49, %50
  %52 = load i64, ptr %7, align 8
  %53 = icmp ult i64 %51, %52
  br i1 %53, label %62, label %54

54:                                               ; preds = %48
  %55 = load i64, ptr %7, align 8
  %56 = load i64, ptr %8, align 8
  %57 = add i64 %55, %56
  %58 = load ptr, ptr %5, align 8
  %59 = getelementptr inbounds %struct.H5FD_t, ptr %58, i32 0, i32 5
  %60 = load i64, ptr %59, align 8
  %61 = icmp ugt i64 %57, %60
  br i1 %61, label %62, label %77

62:                                               ; preds = %54, %48, %43, %40, %29
  br label %63

63:                                               ; preds = %62
  br label %64

64:                                               ; preds = %63
  br label %65

65:                                               ; preds = %64
  %66 = load i64, ptr @H5E_VFL_g, align 8
  %67 = load i64, ptr @H5E_BADVALUE_g, align 8
  %68 = call i32 (ptr, ptr, i32, i64, i64, ptr, ...) @H5E_printf_stack(ptr noundef @.str.1, ptr noundef @__func__.H5FD__free_real, i32 noundef 288, i64 noundef %66, i64 noundef %67, ptr noundef @.str.7)
  br label %69

69:                                               ; preds = %65
  store i8 1, ptr %10, align 1
  %70 = load i8, ptr %10, align 1
  %71 = trunc i8 %70 to i1
  %72 = zext i1 %71 to i8
  store i8 %72, ptr %10, align 1
  br label %73

73:                                               ; preds = %69
  br label %74

74:                                               ; preds = %73
  store i32 -1, ptr %9, align 4
  br label %165

75:                                               ; No predecessors!
  br label %76

76:                                               ; preds = %75
  br label %77

77:                                               ; preds = %76, %54
  %78 = load ptr, ptr %5, align 8
  %79 = getelementptr inbounds %struct.H5FD_t, ptr %78, i32 0, i32 1
  %80 = load ptr, ptr %79, align 8
  %81 = getelementptr inbounds %struct.H5FD_class_t, ptr %80, i32 0, i32 22
  %82 = load ptr, ptr %81, align 8
  %83 = icmp ne ptr %82, null
  br i1 %83, label %84, label %113

84:                                               ; preds = %77
  %85 = load ptr, ptr %5, align 8
  %86 = getelementptr inbounds %struct.H5FD_t, ptr %85, i32 0, i32 1
  %87 = load ptr, ptr %86, align 8
  %88 = getelementptr inbounds %struct.H5FD_class_t, ptr %87, i32 0, i32 22
  %89 = load ptr, ptr %88, align 8
  %90 = load ptr, ptr %5, align 8
  %91 = load i32, ptr %6, align 4
  %92 = call i64 @H5CX_get_dxpl()
  %93 = load i64, ptr %7, align 8
  %94 = load i64, ptr %8, align 8
  %95 = call i32 %89(ptr noundef %90, i32 noundef %91, i64 noundef %92, i64 noundef %93, i64 noundef %94)
  %96 = icmp slt i32 %95, 0
  br i1 %96, label %97, label %112

97:                                               ; preds = %84
  br label %98

98:                                               ; preds = %97
  br label %99

99:                                               ; preds = %98
  br label %100

100:                                              ; preds = %99
  %101 = load i64, ptr @H5E_VFL_g, align 8
  %102 = load i64, ptr @H5E_CANTFREE_g, align 8
  %103 = call i32 (ptr, ptr, i32, i64, i64, ptr, ...) @H5E_printf_stack(ptr noundef @.str.1, ptr noundef @__func__.H5FD__free_real, i32 noundef 296, i64 noundef %101, i64 noundef %102, ptr noundef @.str.8)
  br label %104

104:                                              ; preds = %100
  store i8 1, ptr %10, align 1
  %105 = load i8, ptr %10, align 1
  %106 = trunc i8 %105 to i1
  %107 = zext i1 %106 to i8
  store i8 %107, ptr %10, align 1
  br label %108

108:                                              ; preds = %104
  br label %109

109:                                              ; preds = %108
  store i32 -1, ptr %9, align 4
  br label %165

110:                                              ; No predecessors!
  br label %111

111:                                              ; preds = %110
  br label %112

112:                                              ; preds = %111, %84
  br label %164

113:                                              ; preds = %77
  %114 = load ptr, ptr %5, align 8
  %115 = getelementptr inbounds %struct.H5FD_t, ptr %114, i32 0, i32 1
  %116 = load ptr, ptr %115, align 8
  %117 = getelementptr inbounds %struct.H5FD_class_t, ptr %116, i32 0, i32 23
  %118 = load ptr, ptr %117, align 8
  %119 = icmp ne ptr %118, null
  br i1 %119, label %120, label %162

120:                                              ; preds = %113
  %121 = load ptr, ptr %5, align 8
  %122 = getelementptr inbounds %struct.H5FD_t, ptr %121, i32 0, i32 1
  %123 = load ptr, ptr %122, align 8
  %124 = getelementptr inbounds %struct.H5FD_class_t, ptr %123, i32 0, i32 23
  %125 = load ptr, ptr %124, align 8
  %126 = load ptr, ptr %5, align 8
  %127 = load i32, ptr %6, align 4
  %128 = call i64 %125(ptr noundef %126, i32 noundef %127)
  store i64 %128, ptr %11, align 8
  %129 = load i64, ptr %11, align 8
  %130 = load i64, ptr %7, align 8
  %131 = load i64, ptr %8, align 8
  %132 = add i64 %130, %131
  %133 = icmp eq i64 %129, %132
  br i1 %133, label %134, label %161

134:                                              ; preds = %120
  %135 = load ptr, ptr %5, align 8
  %136 = getelementptr inbounds %struct.H5FD_t, ptr %135, i32 0, i32 1
  %137 = load ptr, ptr %136, align 8
  %138 = getelementptr inbounds %struct.H5FD_class_t, ptr %137, i32 0, i32 24
  %139 = load ptr, ptr %138, align 8
  %140 = load ptr, ptr %5, align 8
  %141 = load i32, ptr %6, align 4
  %142 = load i64, ptr %7, align 8
  %143 = call i32 %139(ptr noundef %140, i32 noundef %141, i64 noundef %142)
  %144 = icmp slt i32 %143, 0
  br i1 %144, label %145, label %160

145:                                              ; preds = %134
  br label %146

146:                                              ; preds = %145
  br label %147

147:                                              ; preds = %146
  br label %148

148:                                              ; preds = %147
  %149 = load i64, ptr @H5E_VFL_g, align 8
  %150 = load i64, ptr @H5E_CANTSET_g, align 8
  %151 = call i32 (ptr, ptr, i32, i64, i64, ptr, ...) @H5E_printf_stack(ptr noundef @.str.1, ptr noundef @__func__.H5FD__free_real, i32 noundef 313, i64 noundef %149, i64 noundef %150, ptr noundef @.str.9)
  br label %152

152:                                              ; preds = %148
  store i8 1, ptr %10, align 1
  %153 = load i8, ptr %10, align 1
  %154 = trunc i8 %153 to i1
  %155 = zext i1 %154 to i8
  store i8 %155, ptr %10, align 1
  br label %156

156:                                              ; preds = %152
  br label %157

157:                                              ; preds = %156
  store i32 -1, ptr %9, align 4
  br label %165

158:                                              ; No predecessors!
  br label %159

159:                                              ; preds = %158
  br label %160

160:                                              ; preds = %159, %134
  br label %161

161:                                              ; preds = %160, %120
  br label %163

162:                                              ; preds = %113
  br label %163

163:                                              ; preds = %162, %161
  br label %164

164:                                              ; preds = %163, %112
  br label %165

165:                                              ; preds = %164, %157, %109, %74, %26
  %166 = load i32, ptr %9, align 4
  ret i32 %166
}