; Function Attrs: nounwind uwtable
define range(i32 -1, 1) i32 @H5FD__free_real(ptr noundef %0, i32 noundef %1, i64 noundef %2, i64 noundef %3) local_unnamed_addr #0 {
  %.not = icmp eq i64 %2, -1
  br i1 %.not, label %5, label %9

5:                                                ; preds = %4
  %6 = load i64, ptr @H5E_VFL_g, align 8
  %7 = load i64, ptr @H5E_BADVALUE_g, align 8
  %8 = tail call i32 (ptr, ptr, i32, i64, i64, ptr, ...) @H5E_printf_stack(ptr noundef nonnull @.str.1, ptr noundef nonnull @__func__.H5FD__free_real, i32 noundef 281, i64 noundef %6, i64 noundef %7, ptr noundef nonnull @.str.6) #2
  br label %55

9:                                                ; preds = %4
  %10 = getelementptr inbounds nuw i8, ptr %0, i64 48
  %11 = load i64, ptr %10, align 8
  %12 = add i64 %11, %2
  %13 = getelementptr inbounds nuw i8, ptr %0, i64 40
  %14 = load i64, ptr %13, align 8
  %15 = icmp ugt i64 %12, %14
  %16 = icmp eq i64 %12, -1
  %or.cond = or i1 %15, %16
  br i1 %or.cond, label %22, label %17

17:                                               ; preds = %9
  %18 = add i64 %12, %3
  %19 = icmp eq i64 %18, -1
  %20 = icmp ult i64 %18, %12
  %or.cond44 = or i1 %19, %20
  %21 = icmp ugt i64 %18, %14
  %or.cond45 = or i1 %21, %or.cond44
  br i1 %or.cond45, label %22, label %26

22:                                               ; preds = %9, %17
  %23 = load i64, ptr @H5E_VFL_g, align 8
  %24 = load i64, ptr @H5E_BADVALUE_g, align 8
  %25 = tail call i32 (ptr, ptr, i32, i64, i64, ptr, ...) @H5E_printf_stack(ptr noundef nonnull @.str.1, ptr noundef nonnull @__func__.H5FD__free_real, i32 noundef 288, i64 noundef %23, i64 noundef %24, ptr noundef nonnull @.str.7) #2
  br label %55

26:                                               ; preds = %17
  %27 = getelementptr inbounds nuw i8, ptr %0, i64 8
  %28 = load ptr, ptr %27, align 8
  %29 = getelementptr inbounds nuw i8, ptr %28, i64 168
  %30 = load ptr, ptr %29, align 8
  %.not42 = icmp eq ptr %30, null
  br i1 %.not42, label %39, label %31

31:                                               ; preds = %26
  %32 = tail call i64 @H5CX_get_dxpl() #2
  %33 = tail call i32 %30(ptr noundef nonnull %0, i32 noundef %1, i64 noundef %32, i64 noundef %12, i64 noundef %3) #2
  %34 = icmp slt i32 %33, 0
  br i1 %34, label %35, label %55

35:                                               ; preds = %31
  %36 = load i64, ptr @H5E_VFL_g, align 8
  %37 = load i64, ptr @H5E_CANTFREE_g, align 8
  %38 = tail call i32 (ptr, ptr, i32, i64, i64, ptr, ...) @H5E_printf_stack(ptr noundef nonnull @.str.1, ptr noundef nonnull @__func__.H5FD__free_real, i32 noundef 296, i64 noundef %36, i64 noundef %37, ptr noundef nonnull @.str.8) #2
  br label %55

39:                                               ; preds = %26
  %40 = getelementptr inbounds nuw i8, ptr %28, i64 176
  %41 = load ptr, ptr %40, align 8
  %.not43 = icmp eq ptr %41, null
  br i1 %.not43, label %55, label %42

42:                                               ; preds = %39
  %43 = tail call i64 %41(ptr noundef nonnull %0, i32 noundef %1) #2
  %44 = icmp eq i64 %43, %18
  br i1 %44, label %45, label %55

45:                                               ; preds = %42
  %46 = load ptr, ptr %27, align 8
  %47 = getelementptr inbounds nuw i8, ptr %46, i64 184
  %48 = load ptr, ptr %47, align 8
  %49 = tail call i32 %48(ptr noundef nonnull %0, i32 noundef %1, i64 noundef %12) #2
  %50 = icmp slt i32 %49, 0
  br i1 %50, label %51, label %55

51:                                               ; preds = %45
  %52 = load i64, ptr @H5E_VFL_g, align 8
  %53 = load i64, ptr @H5E_CANTSET_g, align 8
  %54 = tail call i32 (ptr, ptr, i32, i64, i64, ptr, ...) @H5E_printf_stack(ptr noundef nonnull @.str.1, ptr noundef nonnull @__func__.H5FD__free_real, i32 noundef 313, i64 noundef %52, i64 noundef %53, ptr noundef nonnull @.str.9) #2
  br label %55

55:                                               ; preds = %31, %39, %42, %45, %51, %35, %22, %5
  %.0 = phi i32 [ -1, %22 ], [ -1, %35 ], [ 0, %31 ], [ -1, %51 ], [ 0, %45 ], [ 0, %42 ], [ 0, %39 ], [ -1, %5 ]
  ret i32 %.0
}